target datalayout = "e-m:e-p270:32:32-p271:32:32-p272:64:64-i64:64-i128:128-f80:128-n8:16:32:64-S128"
target triple = "x86_64-pc-linux-gnu"

@_ZN33MLRenderingUserDefinedColorActionC1EPS_P7QObject = unnamed_addr alias void (ptr, ptr, ptr), ptr @_ZN33MLRenderingUserDefinedColorActionC2EPS_P7QObject

; Function Attrs: mustprogress uwtable
define void @_ZN33MLRenderingUserDefinedColorAction18createSisterActionERP17MLRenderingActionP7QObject(ptr noundef nonnull align 8 dereferenceable(24) %0, ptr noundef nonnull align 8 dereferenceable(8) %1, ptr noundef %2) unnamed_addr #5 align 2 personality ptr @__gxx_personality_v0 {
  %4 = alloca ptr, align 8
  %5 = alloca ptr, align 8
  %6 = alloca ptr, align 8
  %7 = alloca ptr, align 8
  %8 = alloca i32, align 4
  store ptr %0, ptr %4, align 8
  store ptr %1, ptr %5, align 8
  store ptr %2, ptr %6, align 8
  %9 = load ptr, ptr %4, align 8
  %10 = call noalias noundef nonnull ptr @_Znwm(i64 noundef 24) #15
  %11 = load ptr, ptr %6, align 8
  invoke void @_ZN33MLRenderingUserDefinedColorActionC1EPS_P7QObject(ptr noundef nonnull align 8 dereferenceable(24) %10, ptr noundef %9, ptr noundef %11)
          to label %12 unwind label %14

12:                                               ; preds = %3
  %13 = load ptr, ptr %5, align 8
  store ptr %10, ptr %13, align 8
  ret void

14:                                               ; preds = %3
  %15 = landingpad { ptr, i32 }
          cleanup
  %16 = extractvalue { ptr, i32 } %15, 0
  store ptr %16, ptr %7, align 8
  %17 = extractvalue { ptr, i32 } %15, 1
  store i32 %17, ptr %8, align 4
  call void @_ZdlPv(ptr noundef %10) #16
  br label %18

18:                                               ; preds = %14
  %19 = load ptr, ptr %7, align 8
  %20 = load i32, ptr %8, align 4
  %21 = insertvalue { ptr, i32 } poison, ptr %19, 0
  %22 = insertvalue { ptr, i32 } %21, i32 %20, 1
  resume { ptr, i32 } %22
}